; Function Attrs: nounwind uwtable
define hidden void @zim_Exception_getTrace(ptr nocapture noundef readonly %0, ptr nocapture noundef writeonly %1) #0 {
  %3 = alloca %struct._zval_struct, align 8
  %4 = getelementptr inbounds i8, ptr %0, i64 44
  %5 = load i32, ptr %4, align 4
  %.not = icmp eq i32 %5, 0
  br i1 %.not, label %7, label %6

6:                                                ; preds = %2
  tail call void @zend_wrong_parameters_none_error() #15
  br label %36

7:                                                ; preds = %2
  %8 = getelementptr inbounds i8, ptr %0, i64 32
  %9 = load ptr, ptr %8, align 8
  %10 = getelementptr i8, ptr %9, i64 16
  %.val = load ptr, ptr %10, align 8
  %11 = load ptr, ptr @zend_ce_exception, align 8
  %12 = icmp eq ptr %11, %.val
  br i1 %12, label %i_get_exception_base.exit, label %13

13:                                               ; preds = %7
  %14 = tail call zeroext i1 @instanceof_function_slow(ptr noundef %.val, ptr noundef %11) #15
  %zend_ce_exception.val.i = load ptr, ptr @zend_ce_exception, align 8
  %zend_ce_error.val.i = load ptr, ptr @zend_ce_error, align 8
  %.pre.i = select i1 %14, ptr %zend_ce_exception.val.i, ptr %zend_ce_error.val.i
  %.pre = load ptr, ptr %8, align 8
  br label %i_get_exception_base.exit

i_get_exception_base.exit:                        ; preds = %7, %13
  %15 = phi ptr [ %9, %7 ], [ %.pre, %13 ]
  %16 = phi ptr [ %.val, %7 ], [ %.pre.i, %13 ]
  %17 = load ptr, ptr @zend_known_strings, align 8
  %18 = getelementptr inbounds i8, ptr %17, i64 224
  %19 = load ptr, ptr %18, align 8
  %20 = call ptr @zend_read_property_ex(ptr noundef %16, ptr noundef %15, ptr noundef %19, i1 noundef zeroext false, ptr noundef nonnull %3) #15
  %21 = getelementptr inbounds i8, ptr %20, i64 8
  %22 = load i8, ptr %21, align 8
  %23 = icmp eq i8 %22, 10
  br i1 %23, label %24, label %27

24:                                               ; preds = %i_get_exception_base.exit
  %25 = load ptr, ptr %20, align 8
  %26 = getelementptr inbounds i8, ptr %25, i64 8
  br label %27

27:                                               ; preds = %24, %i_get_exception_base.exit
  %.0 = phi ptr [ %26, %24 ], [ %20, %i_get_exception_base.exit ]
  %28 = load ptr, ptr %.0, align 8
  %29 = getelementptr inbounds i8, ptr %.0, i64 8
  %30 = load i32, ptr %29, align 8
  store ptr %28, ptr %1, align 8
  %31 = getelementptr inbounds i8, ptr %1, i64 8
  store i32 %30, ptr %31, align 8
  %32 = and i32 %30, 65280
  %.not16 = icmp eq i32 %32, 0
  br i1 %.not16, label %36, label %33

33:                                               ; preds = %27
  %34 = load i32, ptr %28, align 4
  %35 = add i32 %34, 1
  store i32 %35, ptr %28, align 4
  br label %36

36:                                               ; preds = %27, %33, %6
  ret void
}